target datalayout = "e-m:e-p270:32:32-p271:32:32-p272:64:64-i64:64-i128:128-f80:128-n8:16:32:64-S128"
target triple = "x86_64-pc-linux-gnu"

%"class.arrow_vendored::double_conversion::Double" = type { i64 }
%"class.arrow_vendored::double_conversion::Vector" = type <{ ptr, i32, [4 x i8] }>

; Function Attrs: mustprogress nounwind uwtable
define linkonce_odr noundef i64 @_ZN14arrow_vendored17double_conversion7BitCastImdEET_RKT0_(ptr noundef nonnull align 8 dereferenceable(8) %0) #3 comdat {
  %2 = alloca ptr, align 8
  %3 = alloca i64, align 8
  store ptr %0, ptr %2, align 8, !tbaa !61
  call void @llvm.lifetime.start.p0(i64 8, ptr %3) #2
  %4 = load ptr, ptr %2, align 8, !tbaa !61
  call void @llvm.memmove.p0.p0.i64(ptr align 8 %3, ptr align 8 %4, i64 8, i1 false)
  %5 = load i64, ptr %3, align 8, !tbaa !33
  call void @llvm.lifetime.end.p0(i64 8, ptr %3) #2
  ret i64 %5
}

; Function Attrs: mustprogress nounwind uwtable
define linkonce_odr noundef i64 @_ZNK14arrow_vendored17double_conversion6Double8AsUint64Ev(ptr noundef nonnull align 8 dereferenceable(8) %0) #3 comdat align 2 {
  %2 = alloca ptr, align 8
  store ptr %0, ptr %2, align 8, !tbaa !28
  %3 = load ptr, ptr %2, align 8
  %4 = getelementptr inbounds nuw %"class.arrow_vendored::double_conversion::Double", ptr %3, i32 0, i32 0
  %5 = load i64, ptr %4, align 8, !tbaa !30
  ret i64 %5
}

; Function Attrs: mustprogress uwtable
define internal noundef i64 @_ZN14arrow_vendored17double_conversionL16double_to_uint64Ed(double noundef %0) #0 {
  %2 = alloca double, align 8
  store double %0, ptr %2, align 8, !tbaa !24
  %3 = call noundef i64 @_ZN14arrow_vendored17double_conversion7BitCastImdEET_RKT0_(ptr noundef nonnull align 8 dereferenceable(8) %2)
  ret i64 %3
}

; Function Attrs: mustprogress nounwind uwtable
define internal noundef i32 @_ZN14arrow_vendored17double_conversionL20DtoaToBignumDtoaModeENS0_23DoubleToStringConverter8DtoaModeE(i32 noundef %0) #3 {
  %2 = alloca i32, align 4
  %3 = alloca i32, align 4
  store i32 %0, ptr %3, align 4, !tbaa !43
  %4 = load i32, ptr %3, align 4, !tbaa !43
  switch i32 %4, label %9 [
    i32 0, label %5
    i32 1, label %6
    i32 2, label %7
    i32 3, label %8
  ]

5:                                                ; preds = %1
  store i32 0, ptr %2, align 4
  br label %10

6:                                                ; preds = %1
  store i32 1, ptr %2, align 4
  br label %10

7:                                                ; preds = %1
  store i32 2, ptr %2, align 4
  br label %10

8:                                                ; preds = %1
  store i32 3, ptr %2, align 4
  br label %10

9:                                                ; preds = %1
  call void @abort() #9
  unreachable

10:                                               ; preds = %8, %7, %6, %5
  %11 = load i32, ptr %2, align 4
  ret i32 %11
}

; Function Attrs: mustprogress nounwind uwtable
define linkonce_odr noundef nonnull align 1 dereferenceable(1) ptr @_ZNK14arrow_vendored17double_conversion6VectorIcEixEi(ptr noundef nonnull align 8 dereferenceable(12) %0, i32 noundef %1) #3 comdat align 2 {
  %3 = alloca ptr, align 8
  %4 = alloca i32, align 4
  store ptr %0, ptr %3, align 8, !tbaa !57
  store i32 %1, ptr %4, align 4, !tbaa !3
  %5 = load ptr, ptr %3, align 8
  %6 = getelementptr inbounds nuw %"class.arrow_vendored::double_conversion::Vector", ptr %5, i32 0, i32 0
  %7 = load ptr, ptr %6, align 8, !tbaa !59
  %8 = load i32, ptr %4, align 4, !tbaa !3
  %9 = sext i32 %8 to i64
  %10 = getelementptr inbounds i8, ptr %7, i64 %9
  ret ptr %10
}

; Function Attrs: mustprogress nounwind uwtable
define linkonce_odr noundef i32 @_ZNK14arrow_vendored17double_conversion6Double4SignEv(ptr noundef nonnull align 8 dereferenceable(8) %0) #3 comdat align 2 {
  %2 = alloca ptr, align 8
  %3 = alloca i64, align 8
  store ptr %0, ptr %2, align 8, !tbaa !28
  %4 = load ptr, ptr %2, align 8
  call void @llvm.lifetime.start.p0(i64 8, ptr %3) #2
  %5 = call noundef i64 @_ZNK14arrow_vendored17double_conversion6Double8AsUint64Ev(ptr noundef nonnull align 8 dereferenceable(8) %4)
  store i64 %5, ptr %3, align 8, !tbaa !33
  %6 = load i64, ptr %3, align 8, !tbaa !33
  %7 = and i64 %6, -9223372036854775808
  %8 = icmp eq i64 %7, 0
  %9 = select i1 %8, i32 1, i32 -1
  call void @llvm.lifetime.end.p0(i64 8, ptr %3) #2
  ret i32 %9
}

; Function Attrs: mustprogress uwtable
define linkonce_odr void @_ZN14arrow_vendored17double_conversion6DoubleC2Ed(ptr noundef nonnull align 8 dereferenceable(8) %0, double noundef %1) unnamed_addr #0 comdat align 2 {
  %3 = alloca ptr, align 8
  %4 = alloca double, align 8
  store ptr %0, ptr %3, align 8, !tbaa !28
  store double %1, ptr %4, align 8, !tbaa !24
  %5 = load ptr, ptr %3, align 8
  %6 = getelementptr inbounds nuw %"class.arrow_vendored::double_conversion::Double", ptr %5, i32 0, i32 0
  %7 = load double, ptr %4, align 8, !tbaa !24
  %8 = call noundef i64 @_ZN14arrow_vendored17double_conversionL16double_to_uint64Ed(double noundef %7)
  store i64 %8, ptr %6, align 8, !tbaa !30
  ret void
}

; Function Attrs: mustprogress nounwind uwtable
define linkonce_odr void @_ZN14arrow_vendored17double_conversion6VectorIcEC2EPci(ptr noundef nonnull align 8 dereferenceable(12) %0, ptr noundef %1, i32 noundef %2) unnamed_addr #3 comdat align 2 {
  %4 = alloca ptr, align 8
  %5 = alloca ptr, align 8
  %6 = alloca i32, align 4
  store ptr %0, ptr %4, align 8, !tbaa !57
  store ptr %1, ptr %5, align 8, !tbaa !11
  store i32 %2, ptr %6, align 4, !tbaa !3
  %7 = load ptr, ptr %4, align 8
  %8 = getelementptr inbounds nuw %"class.arrow_vendored::double_conversion::Vector", ptr %7, i32 0, i32 0
  %9 = load ptr, ptr %5, align 8, !tbaa !11
  store ptr %9, ptr %8, align 8, !tbaa !59
  %10 = getelementptr inbounds nuw %"class.arrow_vendored::double_conversion::Vector", ptr %7, i32 0, i32 1
  %11 = load i32, ptr %6, align 4, !tbaa !3
  store i32 %11, ptr %10, align 8, !tbaa !60
  ret void
}

; Function Attrs: mustprogress uwtable
define void @_ZN14arrow_vendored17double_conversion23DoubleToStringConverter13DoubleToAsciiEdNS1_8DtoaModeEiPciPbPiS5_(double noundef %0, i32 noundef %1, i32 noundef %2, ptr noundef %3, i32 noundef %4, ptr noundef %5, ptr noundef %6, ptr noundef %7) #0 align 2 {
  %9 = alloca double, align 8
  %10 = alloca i32, align 4
  %11 = alloca i32, align 4
  %12 = alloca ptr, align 8
  %13 = alloca i32, align 4
  %14 = alloca ptr, align 8
  %15 = alloca ptr, align 8
  %16 = alloca ptr, align 8
  %17 = alloca %"class.arrow_vendored::double_conversion::Vector", align 8
  %18 = alloca %"class.arrow_vendored::double_conversion::Double", align 8
  %19 = alloca i32, align 4
  %20 = alloca i8, align 1
  %21 = alloca %"class.arrow_vendored::double_conversion::Vector", align 8
  %22 = alloca %"class.arrow_vendored::double_conversion::Vector", align 8
  %23 = alloca %"class.arrow_vendored::double_conversion::Vector", align 8
  %24 = alloca %"class.arrow_vendored::double_conversion::Vector", align 8
  %25 = alloca i32, align 4
  %26 = alloca %"class.arrow_vendored::double_conversion::Vector", align 8
  store double %0, ptr %9, align 8, !tbaa !24
  store i32 %1, ptr %10, align 4, !tbaa !43
  store i32 %2, ptr %11, align 4, !tbaa !3
  store ptr %3, ptr %12, align 8, !tbaa !11
  store i32 %4, ptr %13, align 4, !tbaa !3
  store ptr %5, ptr %14, align 8, !tbaa !49
  store ptr %6, ptr %15, align 8, !tbaa !40
  store ptr %7, ptr %16, align 8, !tbaa !40
  call void @llvm.lifetime.start.p0(i64 16, ptr %17) #2
  %27 = load ptr, ptr %12, align 8, !tbaa !11
  %28 = load i32, ptr %13, align 4, !tbaa !3
  call void @_ZN14arrow_vendored17double_conversion6VectorIcEC2EPci(ptr noundef nonnull align 8 dereferenceable(12) %17, ptr noundef %27, i32 noundef %28)
  call void @llvm.lifetime.start.p0(i64 8, ptr %18) #2
  %29 = load double, ptr %9, align 8, !tbaa !24
  call void @_ZN14arrow_vendored17double_conversion6DoubleC2Ed(ptr noundef nonnull align 8 dereferenceable(8) %18, double noundef %29)
  %30 = call noundef i32 @_ZNK14arrow_vendored17double_conversion6Double4SignEv(ptr noundef nonnull align 8 dereferenceable(8) %18)
  %31 = icmp slt i32 %30, 0
  call void @llvm.lifetime.end.p0(i64 8, ptr %18) #2
  br i1 %31, label %32, label %36

32:                                               ; preds = %8
  %33 = load ptr, ptr %14, align 8, !tbaa !49
  store i8 1, ptr %33, align 1, !tbaa !45
  %34 = load double, ptr %9, align 8, !tbaa !24
  %35 = fneg double %34
  store double %35, ptr %9, align 8, !tbaa !24
  br label %38

36:                                               ; preds = %8
  %37 = load ptr, ptr %14, align 8, !tbaa !49
  store i8 0, ptr %37, align 1, !tbaa !45
  br label %38

38:                                               ; preds = %36, %32
  %39 = load i32, ptr %10, align 4, !tbaa !43
  %40 = icmp eq i32 %39, 3
  br i1 %40, label %41, label %47

41:                                               ; preds = %38
  %42 = load i32, ptr %11, align 4, !tbaa !3
  %43 = icmp eq i32 %42, 0
  br i1 %43, label %44, label %47

44:                                               ; preds = %41
  %45 = call noundef nonnull align 1 dereferenceable(1) ptr @_ZNK14arrow_vendored17double_conversion6VectorIcEixEi(ptr noundef nonnull align 8 dereferenceable(12) %17, i32 noundef 0)
  store i8 0, ptr %45, align 1, !tbaa !13
  %46 = load ptr, ptr %15, align 8, !tbaa !40
  store i32 0, ptr %46, align 4, !tbaa !3
  store i32 1, ptr %19, align 4
  br label %120

47:                                               ; preds = %41, %38
  %48 = load double, ptr %9, align 8, !tbaa !24
  %49 = fcmp oeq double %48, 0.000000e+00
  br i1 %49, label %50, label %55

50:                                               ; preds = %47
  %51 = call noundef nonnull align 1 dereferenceable(1) ptr @_ZNK14arrow_vendored17double_conversion6VectorIcEixEi(ptr noundef nonnull align 8 dereferenceable(12) %17, i32 noundef 0)
  store i8 48, ptr %51, align 1, !tbaa !13
  %52 = call noundef nonnull align 1 dereferenceable(1) ptr @_ZNK14arrow_vendored17double_conversion6VectorIcEixEi(ptr noundef nonnull align 8 dereferenceable(12) %17, i32 noundef 1)
  store i8 0, ptr %52, align 1, !tbaa !13
  %53 = load ptr, ptr %15, align 8, !tbaa !40
  store i32 1, ptr %53, align 4, !tbaa !3
  %54 = load ptr, ptr %16, align 8, !tbaa !40
  store i32 1, ptr %54, align 4, !tbaa !3
  store i32 1, ptr %19, align 4
  br label %120

55:                                               ; preds = %47
  call void @llvm.lifetime.start.p0(i64 1, ptr %20) #2
  %56 = load i32, ptr %10, align 4, !tbaa !43
  switch i32 %56, label %99 [
    i32 0, label %57
    i32 1, label %67
    i32 2, label %77
    i32 3, label %88
  ]

57:                                               ; preds = %55
  %58 = load double, ptr %9, align 8, !tbaa !24
  call void @llvm.memcpy.p0.p0.i64(ptr align 8 %21, ptr align 8 %17, i64 16, i1 false), !tbaa.struct !51
  %59 = load ptr, ptr %15, align 8, !tbaa !40
  %60 = load ptr, ptr %16, align 8, !tbaa !40
  %61 = getelementptr inbounds nuw { ptr, i32 }, ptr %21, i32 0, i32 0
  %62 = load ptr, ptr %61, align 8
  %63 = getelementptr inbounds nuw { ptr, i32 }, ptr %21, i32 0, i32 1
  %64 = load i32, ptr %63, align 8
  %65 = call noundef zeroext i1 @_ZN14arrow_vendored17double_conversion8FastDtoaEdNS0_12FastDtoaModeEiNS0_6VectorIcEEPiS4_(double noundef %58, i32 noundef 0, i32 noundef 0, ptr %62, i32 %64, ptr noundef %59, ptr noundef %60)
  %66 = zext i1 %65 to i8
  store i8 %66, ptr %20, align 1, !tbaa !45
  br label %100

67:                                               ; preds = %55
  %68 = load double, ptr %9, align 8, !tbaa !24
  call void @llvm.memcpy.p0.p0.i64(ptr align 8 %22, ptr align 8 %17, i64 16, i1 false), !tbaa.struct !51
  %69 = load ptr, ptr %15, align 8, !tbaa !40
  %70 = load ptr, ptr %16, align 8, !tbaa !40
  %71 = getelementptr inbounds nuw { ptr, i32 }, ptr %22, i32 0, i32 0
  %72 = load ptr, ptr %71, align 8
  %73 = getelementptr inbounds nuw { ptr, i32 }, ptr %22, i32 0, i32 1
  %74 = load i32, ptr %73, align 8
  %75 = call noundef zeroext i1 @_ZN14arrow_vendored17double_conversion8FastDtoaEdNS0_12FastDtoaModeEiNS0_6VectorIcEEPiS4_(double noundef %68, i32 noundef 1, i32 noundef 0, ptr %72, i32 %74, ptr noundef %69, ptr noundef %70)
  %76 = zext i1 %75 to i8
  store i8 %76, ptr %20, align 1, !tbaa !45
  br label %100

77:                                               ; preds = %55
  %78 = load double, ptr %9, align 8, !tbaa !24
  %79 = load i32, ptr %11, align 4, !tbaa !3
  call void @llvm.memcpy.p0.p0.i64(ptr align 8 %23, ptr align 8 %17, i64 16, i1 false), !tbaa.struct !51
  %80 = load ptr, ptr %15, align 8, !tbaa !40
  %81 = load ptr, ptr %16, align 8, !tbaa !40
  %82 = getelementptr inbounds nuw { ptr, i32 }, ptr %23, i32 0, i32 0
  %83 = load ptr, ptr %82, align 8
  %84 = getelementptr inbounds nuw { ptr, i32 }, ptr %23, i32 0, i32 1
  %85 = load i32, ptr %84, align 8
  %86 = call noundef zeroext i1 @_ZN14arrow_vendored17double_conversion13FastFixedDtoaEdiNS0_6VectorIcEEPiS3_(double noundef %78, i32 noundef %79, ptr %83, i32 %85, ptr noundef %80, ptr noundef %81)
  %87 = zext i1 %86 to i8
  store i8 %87, ptr %20, align 1, !tbaa !45
  br label %100

88:                                               ; preds = %55
  %89 = load double, ptr %9, align 8, !tbaa !24
  %90 = load i32, ptr %11, align 4, !tbaa !3
  call void @llvm.memcpy.p0.p0.i64(ptr align 8 %24, ptr align 8 %17, i64 16, i1 false), !tbaa.struct !51
  %91 = load ptr, ptr %15, align 8, !tbaa !40
  %92 = load ptr, ptr %16, align 8, !tbaa !40
  %93 = getelementptr inbounds nuw { ptr, i32 }, ptr %24, i32 0, i32 0
  %94 = load ptr, ptr %93, align 8
  %95 = getelementptr inbounds nuw { ptr, i32 }, ptr %24, i32 0, i32 1
  %96 = load i32, ptr %95, align 8
  %97 = call noundef zeroext i1 @_ZN14arrow_vendored17double_conversion8FastDtoaEdNS0_12FastDtoaModeEiNS0_6VectorIcEEPiS4_(double noundef %89, i32 noundef 2, i32 noundef %90, ptr %94, i32 %96, ptr noundef %91, ptr noundef %92)
  %98 = zext i1 %97 to i8
  store i8 %98, ptr %20, align 1, !tbaa !45
  br label %100

99:                                               ; preds = %55
  store i8 0, ptr %20, align 1, !tbaa !45
  call void @abort() #9
  unreachable

100:                                              ; preds = %88, %77, %67, %57
  %101 = load i8, ptr %20, align 1, !tbaa !45, !range !47, !noundef !48
  %102 = trunc i8 %101 to i1
  br i1 %102, label %103, label %104

103:                                              ; preds = %100
  store i32 1, ptr %19, align 4
  br label %119

104:                                              ; preds = %100
  call void @llvm.lifetime.start.p0(i64 4, ptr %25) #2
  %105 = load i32, ptr %10, align 4, !tbaa !43
  %106 = call noundef i32 @_ZN14arrow_vendored17double_conversionL20DtoaToBignumDtoaModeENS0_23DoubleToStringConverter8DtoaModeE(i32 noundef %105)
  store i32 %106, ptr %25, align 4, !tbaa !52
  %107 = load double, ptr %9, align 8, !tbaa !24
  %108 = load i32, ptr %25, align 4, !tbaa !52
  %109 = load i32, ptr %11, align 4, !tbaa !3
  call void @llvm.memcpy.p0.p0.i64(ptr align 8 %26, ptr align 8 %17, i64 16, i1 false), !tbaa.struct !51
  %110 = load ptr, ptr %15, align 8, !tbaa !40
  %111 = load ptr, ptr %16, align 8, !tbaa !40
  %112 = getelementptr inbounds nuw { ptr, i32 }, ptr %26, i32 0, i32 0
  %113 = load ptr, ptr %112, align 8
  %114 = getelementptr inbounds nuw { ptr, i32 }, ptr %26, i32 0, i32 1
  %115 = load i32, ptr %114, align 8
  call void @_ZN14arrow_vendored17double_conversion10BignumDtoaEdNS0_14BignumDtoaModeEiNS0_6VectorIcEEPiS4_(double noundef %107, i32 noundef %108, i32 noundef %109, ptr %113, i32 %115, ptr noundef %110, ptr noundef %111)
  %116 = load ptr, ptr %15, align 8, !tbaa !40
  %117 = load i32, ptr %116, align 4, !tbaa !3
  %118 = call noundef nonnull align 1 dereferenceable(1) ptr @_ZNK14arrow_vendored17double_conversion6VectorIcEixEi(ptr noundef nonnull align 8 dereferenceable(12) %17, i32 noundef %117)
  store i8 0, ptr %118, align 1, !tbaa !13
  call void @llvm.lifetime.end.p0(i64 4, ptr %25) #2
  store i32 0, ptr %19, align 4
  br label %119

119:                                              ; preds = %104, %103
  call void @llvm.lifetime.end.p0(i64 1, ptr %20) #2
  br label %120

120:                                              ; preds = %119, %50, %44
  call void @llvm.lifetime.end.p0(i64 16, ptr %17) #2
  %121 = load i32, ptr %19, align 4
  switch i32 %121, label %123 [
    i32 0, label %122
    i32 1, label %122
  ]

122:                                              ; preds = %120, %120
  ret void

123:                                              ; preds = %120
  unreachable
}